; Function Attrs: mustprogress uwtable
define noundef zeroext i1 @_ZN32pxrInternal_v0_24__pxrReserved__13Usd_CrateData4OpenERKNSt7__cxx1112basic_stringIcSt11char_traitsIcESaIcEEERKSt10shared_ptrINS_7ArAssetEEb(ptr noundef nonnull readonly align 8 captures(none) dereferenceable(32) %0, ptr noundef nonnull align 8 dereferenceable(32) %1, ptr noundef nonnull align 8 dereferenceable(16) %2, i1 noundef zeroext %3) local_unnamed_addr #3 align 2 {
  %5 = alloca i8, align 1
  %6 = zext i1 %3 to i8
  store i8 %6, ptr %5, align 1
  %7 = getelementptr inbounds nuw i8, ptr %0, i64 24
  %8 = load ptr, ptr %7, align 8
  %9 = call noundef zeroext i1 @_ZN32pxrInternal_v0_24__pxrReserved__17Usd_CrateDataImpl4OpenIJRKSt10shared_ptrINS_7ArAssetEERbEEEbRKNSt7__cxx1112basic_stringIcSt11char_traitsIcESaIcEEEDpOT_(ptr noundef nonnull align 8 dereferenceable(96) %8, ptr noundef nonnull align 8 dereferenceable(32) %1, ptr noundef nonnull align 8 dereferenceable(16) %2, ptr noundef nonnull align 1 dereferenceable(1) %5)
  ret i1 %9
}